(dp1
S'files'
p2
(dp3
S'_home_sebastien_devel_janitoo_janitoo_src_janitoo_mqtt'
p4
(dp5
S'index'
p6
(dp7
S'html_filename'
p8
S'_home_sebastien_devel_janitoo_janitoo_src_janitoo_mqtt.html'
p9
sS'name'
p10
S'/home/sebastien/devel/janitoo/janitoo/src/janitoo/mqtt'
p11
sS'nums'
p12
ccopy_reg
_reconstructor
p13
(ccoverage.results
Numbers
p14
c__builtin__
object
p15
NtRp16
(dp17
S'n_files'
p18
I1
sS'n_branches'
p19
I0
sS'n_statements'
p20
I134
sS'n_excluded'
p21
I0
sS'n_partial_branches'
p22
I0
sS'n_missing'
p23
I38
sS'n_missing_branches'
p24
I0
sbssS'hash'
p25
S'UM?\xc3i\x16=\x97\x8b\xda\xf6B6\x93\xa3q'
p26
ssS'_home_sebastien_devel_janitoo_janitoo_factory_src_janitoo_factory_threads_views'
p27
(dp28
g6
(dp29
g8
S'_home_sebastien_devel_janitoo_janitoo_factory_src_janitoo_factory_threads_views.html'
p30
sg10
S'/home/sebastien/devel/janitoo/janitoo_factory/src/janitoo_factory/threads/views'
p31
sg12
g13
(g14
g15
NtRp32
(dp33
g18
I1
sg19
I0
sg20
I202
sg21
I0
sg22
I0
sg23
I202
sg24
I0
sbssg25
S'\x14b\xcdj\x94\x8dq\xce\xb4\xf3\xfeX\xe8\x04}D'
p34
ssS'_home_sebastien_devel_janitoo_janitoo_factory_src_janitoo_factory_values_sensor'
p35
(dp36
g6
(dp37
g8
S'_home_sebastien_devel_janitoo_janitoo_factory_src_janitoo_factory_values_sensor.html'
p38
sg10
S'/home/sebastien/devel/janitoo/janitoo_factory/src/janitoo_factory/values/sensor'
p39
sg12
g13
(g14
g15
NtRp40
(dp41
g18
I1
sg19
I0
sg20
I194
sg21
I0
sg22
I0
sg23
I94
sg24
I0
sbssg25
S'\x83\xf9ya\xb7\x03Tm\xcd\xc1$\xaaA\xc2\xd4;'
p42
ssS'_home_sebastien_devel_janitoo_janitoo_src_janitoo_value_factory'
p43
(dp44
g6
(dp45
g8
S'_home_sebastien_devel_janitoo_janitoo_src_janitoo_value_factory.html'
p46
sg10
S'/home/sebastien/devel/janitoo/janitoo/src/janitoo/value_factory'
p47
sg12
g13
(g14
g15
NtRp48
(dp49
g18
I1
sg19
I0
sg20
I237
sg21
I0
sg22
I0
sg23
I204
sg24
I0
sbssg25
S't\xbd\xe0]\xff\xcf\xc8\xa9\xfb5\x12v\xef@\x93v'
p50
ssS'_home_sebastien_devel_janitoo_janitoo_raspberry_i2c_src_janitoo_raspberry_i2c___init__'
p51
(dp52
g6
(dp53
g8
S'_home_sebastien_devel_janitoo_janitoo_raspberry_i2c_src_janitoo_raspberry_i2c___init__.html'
p54
sg10
S'/home/sebastien/devel/janitoo/janitoo_raspberry_i2c/src/janitoo_raspberry_i2c/__init__'
p55
sg12
g13
(g14
g15
NtRp56
(dp57
g18
I1
sg19
I0
sg20
I4
sg21
I5
sg22
I0
sg23
I0
sg24
I0
sbssg25
S'\xb7\xeb\xa7\x9c>\xb6$\xa8"\x12\xe3\xefN\xc1\xe9\xcd'
p58
ssS'src_janitoo_raspberry_spi_thread_spi'
p59
(dp60
g6
(dp61
g8
S'src_janitoo_raspberry_spi_thread_spi.html'
p62
sg10
S'src/janitoo_raspberry_spi/thread_spi'
p63
sg12
g13
(g14
g15
NtRp64
(dp65
g18
I1
sg19
I0
sg20
I30
sg21
I0
sg22
I0
sg23
I0
sg24
I0
sbssg25
S'K\x11\xb3\x87\xdd\xfb^Z+tb\x05P\xaa\x08;'
p66
ssS'_home_sebastien_devel_janitoo_janitoo_src_janitoo_runner'
p67
(dp68
g6
(dp69
g8
S'_home_sebastien_devel_janitoo_janitoo_src_janitoo_runner.html'
p70
sg10
S'/home/sebastien/devel/janitoo/janitoo/src/janitoo/runner'
p71
sg12
g13
(g14
g15
NtRp72
(dp73
g18
I1
sg19
I0
sg20
I221
sg21
I0
sg22
I0
sg23
I140
sg24
I0
sbssg25
S'm\xbek\xc18\rI"v\xec \xf6\x98\x82\x90\xf7'
p74
ssS'_home_sebastien_devel_janitoo_janitoo_src_janitoo__compat'
p75
(dp76
g6
(dp77
g8
S'_home_sebastien_devel_janitoo_janitoo_src_janitoo__compat.html'
p78
sg10
S'/home/sebastien/devel/janitoo/janitoo/src/janitoo/_compat'
p79
sg12
g13
(g14
g15
NtRp80
(dp81
g18
I1
sg19
I0
sg20
I46
sg21
I0
sg22
I0
sg23
I46
sg24
I0
sbssg25
S'\xf9\x15,\xcb\xd5\xbd\x1d+\xd7\xd5\xd9\xf4\xb2%\x16i'
p82
ssS'_home_sebastien_devel_janitoo_janitoo_src_janitoo_server_updater'
p83
(dp84
g6
(dp85
g8
S'_home_sebastien_devel_janitoo_janitoo_src_janitoo_server_updater.html'
p86
sg10
S'/home/sebastien/devel/janitoo/janitoo/src/janitoo/server_updater'
p87
sg12
g13
(g14
g15
NtRp88
(dp89
g18
I1
sg19
I0
sg20
I264
sg21
I0
sg22
I0
sg23
I264
sg24
I0
sbssg25
S'\x01\xab\xe7KQB\xad\xbeA\x16\xd1]\xf7\x8e\xc2\x07'
p90
ssS'_home_sebastien_devel_janitoo_janitoo_src_janitoo_node'
p91
(dp92
g6
(dp93
g8
S'_home_sebastien_devel_janitoo_janitoo_src_janitoo_node.html'
p94
sg10
S'/home/sebastien/devel/janitoo/janitoo/src/janitoo/node'
p95
sg12
g13
(g14
g15
NtRp96
(dp97
g18
I1
sg19
I0
sg20
I1132
sg21
I0
sg22
I0
sg23
I623
sg24
I0
sbssg25
S']\xc6\x83\x01\xc2\xa9\xe9\x0c\xe8\xb5\xc6\xaf\xe7\x9a\nh'
p98
ssS'src_janitoo_raspberry_spi_bus_spi'
p99
(dp100
g6
(dp101
g8
S'src_janitoo_raspberry_spi_bus_spi.html'
p102
sg10
S'src/janitoo_raspberry_spi/bus_spi'
p103
sg12
g13
(g14
g15
NtRp104
(dp105
g18
I1
sg19
I0
sg20
I103
sg21
I0
sg22
I0
sg23
I24
sg24
I0
sbssg25
S'\x1e}\x95f\xb4\xcd\x17\x85U\xb6\x18\xa3\xef\xda\x1b\xa4'
p106
ssS'_home_sebastien_devel_janitoo_janitoo_factory_src_janitoo_factory_threads_scenes'
p107
(dp108
g6
(dp109
g8
S'_home_sebastien_devel_janitoo_janitoo_factory_src_janitoo_factory_threads_scenes.html'
p110
sg10
S'/home/sebastien/devel/janitoo/janitoo_factory/src/janitoo_factory/threads/scenes'
p111
sg12
g13
(g14
g15
NtRp112
(dp113
g18
I1
sg19
I0
sg20
I101
sg21
I7
sg22
I0
sg23
I56
sg24
I0
sbssg25
S'\xf7\xf5Y\xa2U\x05\x91xC\xb62\xb9\xed*\x99\x9c'
p114
ssS'_home_sebastien_devel_janitoo_janitoo_factory_src_janitoo_factory_threads_email'
p115
(dp116
g6
(dp117
g8
S'_home_sebastien_devel_janitoo_janitoo_factory_src_janitoo_factory_threads_email.html'
p118
sg10
S'/home/sebastien/devel/janitoo/janitoo_factory/src/janitoo_factory/threads/email'
p119
sg12
g13
(g14
g15
NtRp120
(dp121
g18
I1
sg19
I0
sg20
I27
sg21
I0
sg22
I0
sg23
I8
sg24
I0
sbssg25
S'o#\x95\xec-\xad\xf2\xe9\xe5\xdbROWjC\x0e'
p122
ssS'_home_sebastien_devel_janitoo_janitoo_factory_src_janitoo_factory_threads___init__'
p123
(dp124
g6
(dp125
g8
S'_home_sebastien_devel_janitoo_janitoo_factory_src_janitoo_factory_threads___init__.html'
p126
sg10
S'/home/sebastien/devel/janitoo/janitoo_factory/src/janitoo_factory/threads/__init__'
p127
sg12
g13
(g14
g15
NtRp128
(dp129
g18
I1
sg19
I0
sg20
I4
sg21
I5
sg22
I0
sg23
I0
sg24
I0
sbssg25
S'\xbet\xf8\x99\xbe\xda\x9e\xc9&\xaa\xae\xff\x03\xea\xdc.'
p130
ssS'_home_sebastien_devel_janitoo_janitoo_src_janitoo_server'
p131
(dp132
g6
(dp133
g8
S'_home_sebastien_devel_janitoo_janitoo_src_janitoo_server.html'
p134
sg10
S'/home/sebastien/devel/janitoo/janitoo/src/janitoo/server'
p135
sg12
g13
(g14
g15
NtRp136
(dp137
g18
I1
sg19
I0
sg20
I323
sg21
I0
sg22
I0
sg23
I176
sg24
I0
sbssg25
S'g-i\xcfY"\xc1^b\x9c\xce\x1c\xb5T\xb8U'
p138
ssS'_home_sebastien_devel_janitoo_janitoo_factory_src_janitoo_factory_values_other'
p139
(dp140
g6
(dp141
g8
S'_home_sebastien_devel_janitoo_janitoo_factory_src_janitoo_factory_values_other.html'
p142
sg10
S'/home/sebastien/devel/janitoo/janitoo_factory/src/janitoo_factory/values/other'
p143
sg12
g13
(g14
g15
NtRp144
(dp145
g18
I1
sg19
I0
sg20
I95
sg21
I0
sg22
I0
sg23
I62
sg24
I0
sbssg25
S'U\xc0C\x1f1%\xa4(\xe8\xf1\x00R\xe1\x9d#\x8b'
p146
ssS'_home_sebastien_devel_janitoo_janitoo_src_janitoo_tests'
p147
(dp148
g6
(dp149
g8
S'_home_sebastien_devel_janitoo_janitoo_src_janitoo_tests.html'
p150
sg10
S'/home/sebastien/devel/janitoo/janitoo/src/janitoo/tests'
p151
sg12
g13
(g14
g15
NtRp152
(dp153
g18
I1
sg19
I0
sg20
I62
sg21
I0
sg22
I0
sg23
I20
sg24
I0
sbssg25
S'C\x9e\xa4`\xcbI\xf6_\xa2\x0b\x05\x0f\xea_\x0b\x8f'
p154
ssS'_home_sebastien_devel_janitoo_janitoo_src_janitoo_bus'
p155
(dp156
g6
(dp157
g8
S'_home_sebastien_devel_janitoo_janitoo_src_janitoo_bus.html'
p158
sg10
S'/home/sebastien/devel/janitoo/janitoo/src/janitoo/bus'
p159
sg12
g13
(g14
g15
NtRp160
(dp161
g18
I1
sg19
I0
sg20
I172
sg21
I0
sg22
I0
sg23
I113
sg24
I0
sbssg25
S'\xe2\xc9\xca\xf6\xf1\x95\xcf\x81$\xd3\x9c\x04\x15\x0f\x9c['
p162
ssS'_home_sebastien_devel_janitoo_janitoo_factory_src_janitoo_factory_values_action'
p163
(dp164
g6
(dp165
g8
S'_home_sebastien_devel_janitoo_janitoo_factory_src_janitoo_factory_values_action.html'
p166
sg10
S'/home/sebastien/devel/janitoo/janitoo_factory/src/janitoo_factory/values/action'
p167
sg12
g13
(g14
g15
NtRp168
(dp169
g18
I1
sg19
I0
sg20
I99
sg21
I0
sg22
I0
sg23
I45
sg24
I0
sbssg25
S'\xb0\xb0>\xc6\x08\x850/f\x7f_\xaaa\x0e? '
p170
ssS'_home_sebastien_devel_janitoo_janitoo_factory_src_janitoo_factory_values_config'
p171
(dp172
g6
(dp173
g8
S'_home_sebastien_devel_janitoo_janitoo_factory_src_janitoo_factory_values_config.html'
p174
sg10
S'/home/sebastien/devel/janitoo/janitoo_factory/src/janitoo_factory/values/config'
p175
sg12
g13
(g14
g15
NtRp176
(dp177
g18
I1
sg19
I0
sg20
I149
sg21
I0
sg22
I0
sg23
I91
sg24
I0
sbssg25
S'\xb73\x1a\x15\xbe\x81\xe8\xbe\xcf\xa62\xd1H\xeb\x00\xd0'
p178
ssS'_home_sebastien_devel_janitoo_janitoo_raspberry_i2c_src_janitoo_raspberry_i2c_bus_i2c'
p179
(dp180
g6
(dp181
g8
S'_home_sebastien_devel_janitoo_janitoo_raspberry_i2c_src_janitoo_raspberry_i2c_bus_i2c.html'
p182
sg10
S'/home/sebastien/devel/janitoo/janitoo_raspberry_i2c/src/janitoo_raspberry_i2c/bus_i2c'
p183
sg12
g13
(g14
g15
NtRp184
(dp185
g18
I1
sg19
I0
sg20
I44
sg21
I0
sg22
I0
sg23
I16
sg24
I0
sbssg25
S"\x0e\xdf_7\xf1\r\xe8'\x18\xa8i\xa6<\xf0\x90\xca"
p186
ssS'_home_sebastien_devel_janitoo_janitoo_src_janitoo_thread'
p187
(dp188
g6
(dp189
g8
S'_home_sebastien_devel_janitoo_janitoo_src_janitoo_thread.html'
p190
sg10
S'/home/sebastien/devel/janitoo/janitoo/src/janitoo/thread'
p191
sg12
g13
(g14
g15
NtRp192
(dp193
g18
I1
sg19
I0
sg20
I143
sg21
I0
sg22
I0
sg23
I64
sg24
I0
sbssg25
S'\xd3\xc5#f`w\xad\xab&\x96*\xe2\x07\x83:\xc9'
p194
ssS'_home_sebastien_devel_janitoo_janitoo_src_janitoo_options'
p195
(dp196
g6
(dp197
g8
S'_home_sebastien_devel_janitoo_janitoo_src_janitoo_options.html'
p198
sg10
S'/home/sebastien/devel/janitoo/janitoo/src/janitoo/options'
p199
sg12
g13
(g14
g15
NtRp200
(dp201
g18
I1
sg19
I0
sg20
I156
sg21
I0
sg22
I0
sg23
I92
sg24
I0
sbssg25
S'Mb3\xb36\xfd\x1e\x0c\xec@\x15\xdf\xa0|[\xf4'
p202
ssS'janitoo_raspberry_spi_thread_spi'
p203
(dp204
S'index'
p205
(dp206
S'html_filename'
p207
S'janitoo_raspberry_spi_thread_spi.html'
p208
sS'name'
p209
S'janitoo_raspberry_spi.thread_spi'
p210
sS'nums'
p211
g13
(g14
g15
NtRp212
(dp213
g18
I1
sg19
I0
sg20
I30
sg21
I0
sg22
I0
sg23
I0
sg24
I0
sbssS'hash'
p214
S'"]\xbf\xfb\x98\xc5\x93^\xc5.1/\xc5v\x06\xb4'
p215
ssS'_home_sebastien_devel_janitoo_janitoo_factory_src_janitoo_factory_threads_http'
p216
(dp217
g6
(dp218
g8
S'_home_sebastien_devel_janitoo_janitoo_factory_src_janitoo_factory_threads_http.html'
p219
sg10
S'/home/sebastien/devel/janitoo/janitoo_factory/src/janitoo_factory/threads/http'
p220
sg12
g13
(g14
g15
NtRp221
(dp222
g18
I1
sg19
I0
sg20
I286
sg21
I0
sg22
I0
sg23
I226
sg24
I0
sbssg25
S'\x91.\xe2PuG\x8fVw\x95l>d\xb6\xcbN'
p223
ssS'_home_sebastien_devel_janitoo_janitoo_factory_src_janitoo_factory_threads_remote'
p224
(dp225
g6
(dp226
g8
S'_home_sebastien_devel_janitoo_janitoo_factory_src_janitoo_factory_threads_remote.html'
p227
sg10
S'/home/sebastien/devel/janitoo/janitoo_factory/src/janitoo_factory/threads/remote'
p228
sg12
g13
(g14
g15
NtRp229
(dp230
g18
I1
sg19
I0
sg20
I170
sg21
I0
sg22
I0
sg23
I125
sg24
I0
sbssg25
S'\x80+\xc2\xc6\xbc\x15\xe7,\x9a\xf2\xab8\x19`\xaa\x89'
p231
ssS'_home_sebastien_devel_janitoo_janitoo_src_janitoo_utils'
p232
(dp233
g6
(dp234
g8
S'_home_sebastien_devel_janitoo_janitoo_src_janitoo_utils.html'
p235
sg10
S'/home/sebastien/devel/janitoo/janitoo/src/janitoo/utils'
p236
sg12
g13
(g14
g15
NtRp237
(dp238
g18
I1
sg19
I0
sg20
I70
sg21
I0
sg22
I0
sg23
I17
sg24
I0
sbssg25
S'\xee\xcc\r12\x80\x9a\xf2\x02v\xf9QR\xd9\xa5\xc4'
p239
ssS'_home_sebastien_devel_janitoo_janitoo_raspberry_i2c_src_janitoo_raspberry_i2c_thread_i2c'
p240
(dp241
g6
(dp242
g8
S'_home_sebastien_devel_janitoo_janitoo_raspberry_i2c_src_janitoo_raspberry_i2c_thread_i2c.html'
p243
sg10
S'/home/sebastien/devel/janitoo/janitoo_raspberry_i2c/src/janitoo_raspberry_i2c/thread_i2c'
p244
sg12
g13
(g14
g15
NtRp245
(dp246
g18
I1
sg19
I0
sg20
I30
sg21
I0
sg22
I0
sg23
I6
sg24
I0
sbssg25
S'KXA,\x9bg\xe5S\x021>\xab\x9d\xc2\xaav'
p247
ssS'_home_sebastien_devel_janitoo_janitoo_factory_src_janitoo_factory_values___init__'
p248
(dp249
g6
(dp250
g8
S'_home_sebastien_devel_janitoo_janitoo_factory_src_janitoo_factory_values___init__.html'
p251
sg10
S'/home/sebastien/devel/janitoo/janitoo_factory/src/janitoo_factory/values/__init__'
p252
sg12
g13
(g14
g15
NtRp253
(dp254
g18
I1
sg19
I0
sg20
I4
sg21
I5
sg22
I0
sg23
I0
sg24
I0
sbssg25
S'\xbet\xf8\x99\xbe\xda\x9e\xc9&\xaa\xae\xff\x03\xea\xdc.'
p255
ssS'_home_sebastien_devel_janitoo_janitoo_src_janitoo_classes'
p256
(dp257
g6
(dp258
g8
S'_home_sebastien_devel_janitoo_janitoo_src_janitoo_classes.html'
p259
sg10
S'/home/sebastien/devel/janitoo/janitoo/src/janitoo/classes'
p260
sg12
g13
(g14
g15
NtRp261
(dp262
g18
I1
sg19
I0
sg20
I9
sg21
I0
sg22
I0
sg23
I0
sg24
I0
sbssg25
S'\x8aF\x92\x1d\xa0J\xbeU<\xcc\xaef\x8b\xea\x8d\xd7'
p263
ssS'_home_sebastien_devel_janitoo_janitoo_factory_src_janitoo_factory_values_basic'
p264
(dp265
g6
(dp266
g8
S'_home_sebastien_devel_janitoo_janitoo_factory_src_janitoo_factory_values_basic.html'
p267
sg10
S'/home/sebastien/devel/janitoo/janitoo_factory/src/janitoo_factory/values/basic'
p268
sg12
g13
(g14
g15
NtRp269
(dp270
g18
I1
sg19
I0
sg20
I53
sg21
I0
sg22
I0
sg23
I22
sg24
I0
sbssg25
S'\xc7\x1b\x84V\xdf>\xf8\x8dX"\xb4\xe1\xbbA+\xe5'
p271
ssS'_home_sebastien_devel_janitoo_janitoo_src_janitoo___init__'
p272
(dp273
g6
(dp274
g8
S'_home_sebastien_devel_janitoo_janitoo_src_janitoo___init__.html'
p275
sg10
S'/home/sebastien/devel/janitoo/janitoo/src/janitoo/__init__'
p276
sg12
g13
(g14
g15
NtRp277
(dp278
g18
I1
sg19
I0
sg20
I4
sg21
I5
sg22
I0
sg23
I0
sg24
I0
sbssg25
S'\xbet\xf8\x99\xbe\xda\x9e\xc9&\xaa\xae\xff\x03\xea\xdc.'
p279
ssS'_home_sebastien_devel_janitoo_janitoo_src_janitoo_value'
p280
(dp281
g6
(dp282
g8
S'_home_sebastien_devel_janitoo_janitoo_src_janitoo_value.html'
p283
sg10
S'/home/sebastien/devel/janitoo/janitoo/src/janitoo/value'
p284
sg12
g13
(g14
g15
NtRp285
(dp286
g18
I1
sg19
I0
sg20
I104
sg21
I0
sg22
I0
sg23
I44
sg24
I0
sbssg25
S'\x9d\x8atc\xeddM>\x9e;>\xc1\xd2Z<\xdb'
p287
ssS'janitoo_raspberry_spi_bus_spi'
p288
(dp289
g205
(dp290
g207
S'janitoo_raspberry_spi_bus_spi.html'
p291
sg209
S'janitoo_raspberry_spi.bus_spi'
p292
sg211
g13
(g14
g15
NtRp293
(dp294
g18
I1
sg19
I0
sg20
I103
sg21
I0
sg22
I0
sg23
I17
sg24
I0
sbssg214
S'\xa7\\0/\xce\xfd0\x86o1<}\xf7\x19\xe4\x9a'
p295
ssS'src_janitoo_raspberry_spi___init__'
p296
(dp297
g6
(dp298
g8
S'src_janitoo_raspberry_spi___init__.html'
p299
sg10
S'src/janitoo_raspberry_spi/__init__'
p300
sg12
g13
(g14
g15
NtRp301
(dp302
g18
I1
sg19
I0
sg20
I4
sg21
I5
sg22
I0
sg23
I0
sg24
I0
sbssg25
S'\xb7\xeb\xa7\x9c>\xb6$\xa8"\x12\xe3\xefN\xc1\xe9\xcd'
p303
ssS'_home_sebastien_devel_janitoo_janitoo_src_janitoo_component'
p304
(dp305
g6
(dp306
g8
S'_home_sebastien_devel_janitoo_janitoo_src_janitoo_component.html'
p307
sg10
S'/home/sebastien/devel/janitoo/janitoo/src/janitoo/component'
p308
sg12
g13
(g14
g15
NtRp309
(dp310
g18
I1
sg19
I0
sg20
I65
sg21
I0
sg22
I0
sg23
I45
sg24
I0
sbssg25
S'\x1b.\xc8\xac\xc7\x88\xad\x07\x01\xaef\xe7l\xe0\xdd\x9e'
p311
ssS'_home_sebastien_devel_janitoo_janitoo_factory_src_janitoo_factory___init__'
p312
(dp313
g6
(dp314
g8
S'_home_sebastien_devel_janitoo_janitoo_factory_src_janitoo_factory___init__.html'
p315
sg10
S'/home/sebastien/devel/janitoo/janitoo_factory/src/janitoo_factory/__init__'
p316
sg12
g13
(g14
g15
NtRp317
(dp318
g18
I1
sg19
I0
sg20
I4
sg21
I5
sg22
I0
sg23
I0
sg24
I0
sbssg25
S'\xbet\xf8\x99\xbe\xda\x9e\xc9&\xaa\xae\xff\x03\xea\xdc.'
p319
ssS'janitoo_raspberry_spi'
p320
(dp321
g205
(dp322
S'html_filename'
p323
S'janitoo_raspberry_spi.html'
p324
sS'name'
p325
g320
sS'nums'
p326
g13
(g14
g15
NtRp327
(dp328
g18
I1
sg19
I0
sg20
I4
sg21
I5
sg22
I0
sg23
I0
sg24
I0
sbssg214
S'\xb7\xeb\xa7\x9c>\xb6$\xa8"\x12\xe3\xefN\xc1\xe9\xcd'
p329
ssS'_home_sebastien_devel_janitoo_janitoo_src_janitoo_dhcp'
p330
(dp331
g6
(dp332
g8
S'_home_sebastien_devel_janitoo_janitoo_src_janitoo_dhcp.html'
p333
sg10
S'/home/sebastien/devel/janitoo/janitoo/src/janitoo/dhcp'
p334
sg12
g13
(g14
g15
NtRp335
(dp336
g18
I1
sg19
I0
sg20
I1442
sg21
I0
sg22
I0
sg23
I1267
sg24
I0
sbssg25
S'\xa1\xbfa3r\x05\x14m\xfd\x1b\x8c\x9f\x91\x01\xf3U'
p337
sssS'version'
p338
S'3.7.1'
p339
sS'settings'
p340
S'\xe8\xb3_\xd7\x05\x82F\x89\xb6\xc8vm\xb1*\x04P'
p341
sS'format'
p342
I1
s.